; Function Attrs: inlinehint mustprogress nounwind optsize uwtable
define internal noundef ptr @"_ZZN8nanobind6detail11func_createILb0ELb1EZL30nanobind_init_test_ndarray_extRNS_7module_EE4$_44NS_7ndarrayIJEEEJS6_EJLm0EEJNS_5scopeENS_4nameENS_9rv_policyEEEEP7_objectOT1_PFT2_DpT3_ESt16integer_sequenceImJXspT4_EEEDpRKT5_ENUlPvPSB_PhS9_PNS0_12cleanup_listEE_8__invokeESP_SQ_SR_S9_ST_"(ptr readnone captures(none) %0, ptr noundef readonly captures(none) %1, ptr noundef readonly captures(none) %2, i32 noundef %3, ptr noundef %4) #8 align 2 personality ptr @__gxx_personality_v0 {
  %6 = alloca %"struct.nanobind::detail::tuple.170", align 8
  call void @llvm.lifetime.start.p0(i64 56, ptr nonnull %6) #22
  call void @llvm.memset.p0.i64(ptr noundef nonnull align 8 dereferenceable(56) %6, i8 0, i64 56, i1 false)
  %7 = load ptr, ptr %1, align 8, !tbaa !93
  %8 = load i8, ptr %2, align 1, !tbaa !60
  %9 = call noundef zeroext i1 @_ZN8nanobind6detail11type_casterINS_7ndarrayIJEEEiE11from_pythonENS_6handleEhPNS0_12cleanup_listE(ptr noundef nonnull align 8 dereferenceable(56) %6, ptr %7, i8 noundef zeroext %8, ptr noundef %4) #23
  br i1 %9, label %10, label %"_ZZN8nanobind6detail11func_createILb0ELb1EZL30nanobind_init_test_ndarray_extRNS_7module_EE4$_44NS_7ndarrayIJEEEJS6_EJLm0EEJNS_5scopeENS_4nameENS_9rv_policyEEEEP7_objectOT1_PFT2_DpT3_ESt16integer_sequenceImJXspT4_EEEDpRKT5_ENKUlPvPSB_PhS9_PNS0_12cleanup_listEE_clESP_SQ_SR_S9_ST_.exit"

10:                                               ; preds = %5
  %11 = load ptr, ptr %6, align 8, !tbaa !115
  call void @llvm.memset.p0.i64(ptr noundef nonnull align 8 dereferenceable(56) %6, i8 0, i64 56, i1 false)
  %12 = call noundef ptr @_ZN8nanobind6detail14ndarray_exportEPNS0_14ndarray_handleEiNS_9rv_policyEPNS0_12cleanup_listE(ptr noundef %11, i32 noundef 0, i32 noundef %3, ptr noundef %4) #23
  call void @_ZN8nanobind6detail15ndarray_dec_refEPNS0_14ndarray_handleE(ptr noundef %11) #23
  call void @_ZN8nanobind6detail15ndarray_dec_refEPNS0_14ndarray_handleE(ptr noundef null) #23
  br label %"_ZZN8nanobind6detail11func_createILb0ELb1EZL30nanobind_init_test_ndarray_extRNS_7module_EE4$_44NS_7ndarrayIJEEEJS6_EJLm0EEJNS_5scopeENS_4nameENS_9rv_policyEEEEP7_objectOT1_PFT2_DpT3_ESt16integer_sequenceImJXspT4_EEEDpRKT5_ENKUlPvPSB_PhS9_PNS0_12cleanup_listEE_clESP_SQ_SR_S9_ST_.exit"

"_ZZN8nanobind6detail11func_createILb0ELb1EZL30nanobind_init_test_ndarray_extRNS_7module_EE4$_44NS_7ndarrayIJEEEJS6_EJLm0EEJNS_5scopeENS_4nameENS_9rv_policyEEEEP7_objectOT1_PFT2_DpT3_ESt16integer_sequenceImJXspT4_EEEDpRKT5_ENKUlPvPSB_PhS9_PNS0_12cleanup_listEE_clESP_SQ_SR_S9_ST_.exit": ; preds = %5, %10
  %.0.i = phi ptr [ %12, %10 ], [ inttoptr (i64 1 to ptr), %5 ]
  %13 = load ptr, ptr %6, align 8, !tbaa !115
  call void @_ZN8nanobind6detail15ndarray_dec_refEPNS0_14ndarray_handleE(ptr noundef %13) #23
  call void @llvm.lifetime.end.p0(i64 56, ptr nonnull %6) #22
  ret ptr %.0.i
}